target datalayout = "e-m:e-p270:32:32-p271:32:32-p272:64:64-i64:64-i128:128-f80:128-n8:16:32:64-S128"
target triple = "x86_64-pc-linux-gnu"

%struct.PROV_ECDSA_CTX = type { ptr, ptr, ptr, i32, i8, [256 x i8], i64, [50 x i8], ptr, ptr, i64, ptr, i64, ptr, ptr, i32 }

@.str = private unnamed_addr constant [59 x i8] c"../openssl/providers/implementations/signature/ecdsa_sig.c\00", align 1

; Function Attrs: nounwind uwtable
define internal void @ecdsa_freectx(ptr noundef %0) #0 {
  %2 = alloca ptr, align 8
  %3 = alloca ptr, align 8
  store ptr %0, ptr %2, align 8, !tbaa !3
  call void @llvm.lifetime.start.p0(i64 8, ptr %3) #7
  %4 = load ptr, ptr %2, align 8, !tbaa !3
  store ptr %4, ptr %3, align 8, !tbaa !3
  %5 = load ptr, ptr %3, align 8, !tbaa !3
  %6 = getelementptr inbounds nuw %struct.PROV_ECDSA_CTX, ptr %5, i32 0, i32 9
  %7 = load ptr, ptr %6, align 8, !tbaa !25
  call void @EVP_MD_CTX_free(ptr noundef %7)
  %8 = load ptr, ptr %3, align 8, !tbaa !3
  %9 = getelementptr inbounds nuw %struct.PROV_ECDSA_CTX, ptr %8, i32 0, i32 8
  %10 = load ptr, ptr %9, align 8, !tbaa !27
  call void @EVP_MD_free(ptr noundef %10)
  %11 = load ptr, ptr %3, align 8, !tbaa !3
  %12 = getelementptr inbounds nuw %struct.PROV_ECDSA_CTX, ptr %11, i32 0, i32 1
  %13 = load ptr, ptr %12, align 8, !tbaa !18
  call void @CRYPTO_free(ptr noundef %13, ptr noundef @.str, i32 noundef 613)
  %14 = load ptr, ptr %3, align 8, !tbaa !3
  %15 = getelementptr inbounds nuw %struct.PROV_ECDSA_CTX, ptr %14, i32 0, i32 11
  %16 = load ptr, ptr %15, align 8, !tbaa !28
  call void @CRYPTO_free(ptr noundef %16, ptr noundef @.str, i32 noundef 614)
  %17 = load ptr, ptr %3, align 8, !tbaa !3
  %18 = getelementptr inbounds nuw %struct.PROV_ECDSA_CTX, ptr %17, i32 0, i32 2
  %19 = load ptr, ptr %18, align 8, !tbaa !29
  call void @EC_KEY_free(ptr noundef %19)
  %20 = load ptr, ptr %3, align 8, !tbaa !3
  %21 = getelementptr inbounds nuw %struct.PROV_ECDSA_CTX, ptr %20, i32 0, i32 13
  %22 = load ptr, ptr %21, align 8, !tbaa !30
  call void @BN_clear_free(ptr noundef %22)
  %23 = load ptr, ptr %3, align 8, !tbaa !3
  %24 = getelementptr inbounds nuw %struct.PROV_ECDSA_CTX, ptr %23, i32 0, i32 14
  %25 = load ptr, ptr %24, align 8, !tbaa !31
  call void @BN_clear_free(ptr noundef %25)
  %26 = load ptr, ptr %3, align 8, !tbaa !3
  call void @CRYPTO_free(ptr noundef %26, ptr noundef @.str, i32 noundef 618)
  call void @llvm.lifetime.end.p0(i64 8, ptr %3) #7
  ret void
}

; Function Attrs: nounwind uwtable
define internal ptr @ecdsa_dupctx(ptr noundef %0) #0 {
  %2 = alloca ptr, align 8
  %3 = alloca ptr, align 8
  %4 = alloca ptr, align 8
  %5 = alloca ptr, align 8
  %6 = alloca i32, align 4
  store ptr %0, ptr %3, align 8, !tbaa !3
  call void @llvm.lifetime.start.p0(i64 8, ptr %4) #7
  %7 = load ptr, ptr %3, align 8, !tbaa !3
  store ptr %7, ptr %4, align 8, !tbaa !3
  call void @llvm.lifetime.start.p0(i64 8, ptr %5) #7
  %8 = call i32 @ossl_prov_is_running()
  %9 = icmp ne i32 %8, 0
  br i1 %9, label %11, label %10

10:                                               ; preds = %1
  store ptr null, ptr %2, align 8
  store i32 1, ptr %6, align 4
  br label %113

11:                                               ; preds = %1
  %12 = call noalias ptr @CRYPTO_zalloc(i64 noundef 416, ptr noundef @.str, i32 noundef 629)
  store ptr %12, ptr %5, align 8, !tbaa !3
  %13 = load ptr, ptr %5, align 8, !tbaa !3
  %14 = icmp eq ptr %13, null
  br i1 %14, label %15, label %16

15:                                               ; preds = %11
  store ptr null, ptr %2, align 8
  store i32 1, ptr %6, align 4
  br label %113

16:                                               ; preds = %11
  %17 = load ptr, ptr %5, align 8, !tbaa !3
  %18 = load ptr, ptr %4, align 8, !tbaa !3
  call void @llvm.memcpy.p0.p0.i64(ptr align 8 %17, ptr align 8 %18, i64 416, i1 false), !tbaa.struct !32
  %19 = load ptr, ptr %5, align 8, !tbaa !3
  %20 = getelementptr inbounds nuw %struct.PROV_ECDSA_CTX, ptr %19, i32 0, i32 2
  store ptr null, ptr %20, align 8, !tbaa !29
  %21 = load ptr, ptr %5, align 8, !tbaa !3
  %22 = getelementptr inbounds nuw %struct.PROV_ECDSA_CTX, ptr %21, i32 0, i32 1
  store ptr null, ptr %22, align 8, !tbaa !18
  %23 = load ptr, ptr %4, align 8, !tbaa !3
  %24 = getelementptr inbounds nuw %struct.PROV_ECDSA_CTX, ptr %23, i32 0, i32 2
  %25 = load ptr, ptr %24, align 8, !tbaa !29
  %26 = icmp ne ptr %25, null
  br i1 %26, label %27, label %34

27:                                               ; preds = %16
  %28 = load ptr, ptr %4, align 8, !tbaa !3
  %29 = getelementptr inbounds nuw %struct.PROV_ECDSA_CTX, ptr %28, i32 0, i32 2
  %30 = load ptr, ptr %29, align 8, !tbaa !29
  %31 = call i32 @EC_KEY_up_ref(ptr noundef %30)
  %32 = icmp ne i32 %31, 0
  br i1 %32, label %34, label %33

33:                                               ; preds = %27
  br label %111

34:                                               ; preds = %27, %16
  %35 = load ptr, ptr %4, align 8, !tbaa !3
  %36 = getelementptr inbounds nuw %struct.PROV_ECDSA_CTX, ptr %35, i32 0, i32 13
  %37 = load ptr, ptr %36, align 8, !tbaa !30
  %38 = icmp ne ptr %37, null
  br i1 %38, label %44, label %39

39:                                               ; preds = %34
  %40 = load ptr, ptr %4, align 8, !tbaa !3
  %41 = getelementptr inbounds nuw %struct.PROV_ECDSA_CTX, ptr %40, i32 0, i32 14
  %42 = load ptr, ptr %41, align 8, !tbaa !31
  %43 = icmp ne ptr %42, null
  br i1 %43, label %44, label %45

44:                                               ; preds = %39, %34
  br label %111

45:                                               ; preds = %39
  %46 = load ptr, ptr %4, align 8, !tbaa !3
  %47 = getelementptr inbounds nuw %struct.PROV_ECDSA_CTX, ptr %46, i32 0, i32 2
  %48 = load ptr, ptr %47, align 8, !tbaa !29
  %49 = load ptr, ptr %5, align 8, !tbaa !3
  %50 = getelementptr inbounds nuw %struct.PROV_ECDSA_CTX, ptr %49, i32 0, i32 2
  store ptr %48, ptr %50, align 8, !tbaa !29
  %51 = load ptr, ptr %4, align 8, !tbaa !3
  %52 = getelementptr inbounds nuw %struct.PROV_ECDSA_CTX, ptr %51, i32 0, i32 8
  %53 = load ptr, ptr %52, align 8, !tbaa !27
  %54 = icmp ne ptr %53, null
  br i1 %54, label %55, label %62

55:                                               ; preds = %45
  %56 = load ptr, ptr %4, align 8, !tbaa !3
  %57 = getelementptr inbounds nuw %struct.PROV_ECDSA_CTX, ptr %56, i32 0, i32 8
  %58 = load ptr, ptr %57, align 8, !tbaa !27
  %59 = call i32 @EVP_MD_up_ref(ptr noundef %58)
  %60 = icmp ne i32 %59, 0
  br i1 %60, label %62, label %61

61:                                               ; preds = %55
  br label %111

62:                                               ; preds = %55, %45
  %63 = load ptr, ptr %4, align 8, !tbaa !3
  %64 = getelementptr inbounds nuw %struct.PROV_ECDSA_CTX, ptr %63, i32 0, i32 8
  %65 = load ptr, ptr %64, align 8, !tbaa !27
  %66 = load ptr, ptr %5, align 8, !tbaa !3
  %67 = getelementptr inbounds nuw %struct.PROV_ECDSA_CTX, ptr %66, i32 0, i32 8
  store ptr %65, ptr %67, align 8, !tbaa !27
  %68 = load ptr, ptr %4, align 8, !tbaa !3
  %69 = getelementptr inbounds nuw %struct.PROV_ECDSA_CTX, ptr %68, i32 0, i32 9
  %70 = load ptr, ptr %69, align 8, !tbaa !25
  %71 = icmp ne ptr %70, null
  br i1 %71, label %72, label %91

72:                                               ; preds = %62
  %73 = call ptr @EVP_MD_CTX_new()
  %74 = load ptr, ptr %5, align 8, !tbaa !3
  %75 = getelementptr inbounds nuw %struct.PROV_ECDSA_CTX, ptr %74, i32 0, i32 9
  store ptr %73, ptr %75, align 8, !tbaa !25
  %76 = load ptr, ptr %5, align 8, !tbaa !3
  %77 = getelementptr inbounds nuw %struct.PROV_ECDSA_CTX, ptr %76, i32 0, i32 9
  %78 = load ptr, ptr %77, align 8, !tbaa !25
  %79 = icmp eq ptr %78, null
  br i1 %79, label %89, label %80

80:                                               ; preds = %72
  %81 = load ptr, ptr %5, align 8, !tbaa !3
  %82 = getelementptr inbounds nuw %struct.PROV_ECDSA_CTX, ptr %81, i32 0, i32 9
  %83 = load ptr, ptr %82, align 8, !tbaa !25
  %84 = load ptr, ptr %4, align 8, !tbaa !3
  %85 = getelementptr inbounds nuw %struct.PROV_ECDSA_CTX, ptr %84, i32 0, i32 9
  %86 = load ptr, ptr %85, align 8, !tbaa !25
  %87 = call i32 @EVP_MD_CTX_copy_ex(ptr noundef %83, ptr noundef %86)
  %88 = icmp ne i32 %87, 0
  br i1 %88, label %90, label %89

89:                                               ; preds = %80, %72
  br label %111

90:                                               ; preds = %80
  br label %91

91:                                               ; preds = %90, %62
  %92 = load ptr, ptr %4, align 8, !tbaa !3
  %93 = getelementptr inbounds nuw %struct.PROV_ECDSA_CTX, ptr %92, i32 0, i32 1
  %94 = load ptr, ptr %93, align 8, !tbaa !18
  %95 = icmp ne ptr %94, null
  br i1 %95, label %96, label %109

96:                                               ; preds = %91
  %97 = load ptr, ptr %4, align 8, !tbaa !3
  %98 = getelementptr inbounds nuw %struct.PROV_ECDSA_CTX, ptr %97, i32 0, i32 1
  %99 = load ptr, ptr %98, align 8, !tbaa !18
  %100 = call noalias ptr @CRYPTO_strdup(ptr noundef %99, ptr noundef @.str, i32 noundef 656)
  %101 = load ptr, ptr %5, align 8, !tbaa !3
  %102 = getelementptr inbounds nuw %struct.PROV_ECDSA_CTX, ptr %101, i32 0, i32 1
  store ptr %100, ptr %102, align 8, !tbaa !18
  %103 = load ptr, ptr %5, align 8, !tbaa !3
  %104 = getelementptr inbounds nuw %struct.PROV_ECDSA_CTX, ptr %103, i32 0, i32 1
  %105 = load ptr, ptr %104, align 8, !tbaa !18
  %106 = icmp eq ptr %105, null
  br i1 %106, label %107, label %108

107:                                              ; preds = %96
  br label %111

108:                                              ; preds = %96
  br label %109

109:                                              ; preds = %108, %91
  %110 = load ptr, ptr %5, align 8, !tbaa !3
  store ptr %110, ptr %2, align 8
  store i32 1, ptr %6, align 4
  br label %113

111:                                              ; preds = %107, %89, %61, %44, %33
  %112 = load ptr, ptr %5, align 8, !tbaa !3
  call void @ecdsa_freectx(ptr noundef %112)
  store ptr null, ptr %2, align 8
  store i32 1, ptr %6, align 4
  br label %113

113:                                              ; preds = %111, %109, %15, %10
  call void @llvm.lifetime.end.p0(i64 8, ptr %5) #7
  call void @llvm.lifetime.end.p0(i64 8, ptr %4) #7
  %114 = load ptr, ptr %2, align 8
  ret ptr %114
}