; Function Attrs: nounwind uwtable
define internal ptr @ecdsa_dupctx(ptr noundef readonly captures(none) %0) #0 {
  %2 = tail call i32 @ossl_prov_is_running() #8
  %.not = icmp eq i32 %2, 0
  br i1 %.not, label %55, label %3

3:                                                ; preds = %1
  %4 = tail call noalias ptr @CRYPTO_zalloc(i64 noundef 416, ptr noundef nonnull @.str, i32 noundef 629) #8
  %5 = icmp eq ptr %4, null
  br i1 %5, label %55, label %6

6:                                                ; preds = %3
  tail call void @llvm.memcpy.p0.p0.i64(ptr noundef nonnull align 8 dereferenceable(416) %4, ptr noundef nonnull align 8 dereferenceable(416) %0, i64 416, i1 false), !tbaa.struct !31
  %7 = getelementptr inbounds nuw i8, ptr %4, i64 16
  %8 = getelementptr inbounds nuw i8, ptr %4, i64 8
  %9 = getelementptr inbounds nuw i8, ptr %0, i64 16
  tail call void @llvm.memset.p0.i64(ptr noundef nonnull align 8 dereferenceable(16) %8, i8 0, i64 16, i1 false)
  %10 = load ptr, ptr %9, align 8, !tbaa !19
  %.not33 = icmp eq ptr %10, null
  br i1 %.not33, label %13, label %11

11:                                               ; preds = %6
  %12 = tail call i32 @EC_KEY_up_ref(ptr noundef nonnull %10) #8
  %.not34 = icmp eq i32 %12, 0
  br i1 %.not34, label %43, label %13

13:                                               ; preds = %11, %6
  %14 = getelementptr inbounds nuw i8, ptr %0, i64 392
  %15 = load ptr, ptr %14, align 8, !tbaa !29
  %.not35 = icmp eq ptr %15, null
  br i1 %.not35, label %16, label %43

16:                                               ; preds = %13
  %17 = getelementptr inbounds nuw i8, ptr %0, i64 400
  %18 = load ptr, ptr %17, align 8, !tbaa !30
  %.not36 = icmp eq ptr %18, null
  br i1 %.not36, label %19, label %43

19:                                               ; preds = %16
  %20 = load ptr, ptr %9, align 8, !tbaa !19
  store ptr %20, ptr %7, align 8, !tbaa !19
  %21 = getelementptr inbounds nuw i8, ptr %0, i64 352
  %22 = load ptr, ptr %21, align 8, !tbaa !28
  %.not37 = icmp eq ptr %22, null
  br i1 %.not37, label %25, label %23

23:                                               ; preds = %19
  %24 = tail call i32 @EVP_MD_up_ref(ptr noundef nonnull %22) #8
  %.not38 = icmp eq i32 %24, 0
  br i1 %.not38, label %43, label %._crit_edge

._crit_edge:                                      ; preds = %23
  %.pre = load ptr, ptr %21, align 8, !tbaa !28
  br label %25

25:                                               ; preds = %._crit_edge, %19
  %26 = phi ptr [ %.pre, %._crit_edge ], [ null, %19 ]
  %27 = getelementptr inbounds nuw i8, ptr %4, i64 352
  store ptr %26, ptr %27, align 8, !tbaa !28
  %28 = getelementptr inbounds nuw i8, ptr %0, i64 360
  %29 = load ptr, ptr %28, align 8, !tbaa !18
  %.not39 = icmp eq ptr %29, null
  br i1 %.not39, label %37, label %30

30:                                               ; preds = %25
  %31 = tail call ptr @EVP_MD_CTX_new() #8
  %32 = getelementptr inbounds nuw i8, ptr %4, i64 360
  store ptr %31, ptr %32, align 8, !tbaa !18
  %33 = icmp eq ptr %31, null
  br i1 %33, label %43, label %34

34:                                               ; preds = %30
  %35 = load ptr, ptr %28, align 8, !tbaa !18
  %36 = tail call i32 @EVP_MD_CTX_copy_ex(ptr noundef nonnull %31, ptr noundef %35) #8
  %.not40 = icmp eq i32 %36, 0
  br i1 %.not40, label %43, label %37

37:                                               ; preds = %34, %25
  %38 = getelementptr inbounds nuw i8, ptr %0, i64 8
  %39 = load ptr, ptr %38, align 8, !tbaa !16
  %.not41 = icmp eq ptr %39, null
  br i1 %.not41, label %55, label %40

40:                                               ; preds = %37
  %41 = tail call noalias ptr @CRYPTO_strdup(ptr noundef nonnull %39, ptr noundef nonnull @.str, i32 noundef 656) #8
  store ptr %41, ptr %8, align 8, !tbaa !16
  %42 = icmp eq ptr %41, null
  br i1 %42, label %43, label %55

43:                                               ; preds = %40, %30, %34, %23, %13, %16, %11
  %44 = phi ptr [ %20, %40 ], [ %20, %30 ], [ %20, %34 ], [ %20, %23 ], [ null, %13 ], [ null, %16 ], [ null, %11 ]
  %45 = getelementptr inbounds nuw i8, ptr %4, i64 360
  %46 = load ptr, ptr %45, align 8, !tbaa !18
  tail call void @EVP_MD_CTX_free(ptr noundef %46) #8
  %47 = getelementptr inbounds nuw i8, ptr %4, i64 352
  %48 = load ptr, ptr %47, align 8, !tbaa !28
  tail call void @EVP_MD_free(ptr noundef %48) #8
  tail call void @CRYPTO_free(ptr noundef null, ptr noundef nonnull @.str, i32 noundef 613) #8
  %49 = getelementptr inbounds nuw i8, ptr %4, i64 376
  %50 = load ptr, ptr %49, align 8, !tbaa !25
  tail call void @CRYPTO_free(ptr noundef %50, ptr noundef nonnull @.str, i32 noundef 614) #8
  tail call void @EC_KEY_free(ptr noundef %44) #8
  %51 = getelementptr inbounds nuw i8, ptr %4, i64 392
  %52 = load ptr, ptr %51, align 8, !tbaa !29
  tail call void @BN_clear_free(ptr noundef %52) #8
  %53 = getelementptr inbounds nuw i8, ptr %4, i64 400
  %54 = load ptr, ptr %53, align 8, !tbaa !30
  tail call void @BN_clear_free(ptr noundef %54) #8
  tail call void @CRYPTO_free(ptr noundef nonnull %4, ptr noundef nonnull @.str, i32 noundef 618) #8
  br label %55

55:                                               ; preds = %37, %40, %3, %1, %43
  %.0 = phi ptr [ null, %43 ], [ null, %1 ], [ null, %3 ], [ %4, %40 ], [ %4, %37 ]
  ret ptr %.0
}